


ARM Macro Assembler    Page 1 


    1 00000000                 AREA             DisplayResult, CODE, READONLY
    2 00000000                 IMPORT           main
    3 00000000                 IMPORT           getkey
    4 00000000                 IMPORT           sendchar
    5 00000000                 EXPORT           start
    6 00000000                 PRESERVE8
    7 00000000         
    8 00000000         start
    9 00000000         
   10 00000000 E3A0300A        LDR              R3, =10
   11 00000004 E3A04000        LDR              R4,=0
   12 00000008 E3A06000        LDR              R6, =0
   13 0000000C         
   14 0000000C         read
   15 0000000C EBFFFFFE        BL               getkey      ; read key from con
                                                            sole
   16 00000010 E350000D        CMP              R0, #0x0D   ; while (key != ent
                                                            er)
   17 00000014 0A000018        BEQ              endReadAgain ; {
   18 00000018 EBFFFFFE        BL               sendchar    ;   echo key back t
                                                            o console
   19 0000001C         
   20 0000001C         ;
   21 0000001C         ; do any necessary processing of the key
   22 0000001C         ;
   23 0000001C         
   24 0000001C E350002A        CMP              R0, #'*'
   25 00000020 0A000007        BEQ              multiplyOperator
   26 00000024 E350002B        CMP              R0, #'+'
   27 00000028 0A000007        BEQ              addOperator
   28 0000002C E350002D        CMP              R0, #'-'
   29 00000030 0A000007        BEQ              subtractOperator
   30 00000034         
   31 00000034 E0040493        MUL              R4, R3, R4
   32 00000038 E2400030        SUB              R0, R0, #0x30
   33 0000003C E0804004        ADD              R4, R0, R4
   34 00000040         
   35 00000040 EAFFFFF1        B                read
   36 00000044         
   37 00000044         multiplyOperator
   38 00000044 E3A07001        LDR              R7,= 1
   39 00000048 EA000003        B                endRead
   40 0000004C         
   41 0000004C         addOperator
   42 0000004C E3A07002        LDR              R7,= 2
   43 00000050 EA000001        B                endRead
   44 00000054         
   45 00000054         subtractOperator
   46 00000054 E3A07003        LDR              R7,= 3
   47 00000058 EAFFFFFF        B                endRead
   48 0000005C         
   49 0000005C         endRead
   50 0000005C         
   51 0000005C         readAgain
   52 0000005C         
   53 0000005C EBFFFFFE        BL               getkey      ; read key from con
                                                            sole
   54 00000060 E350000D        CMP              R0, #0x0D   ; while (key != ent
                                                            er)



ARM Macro Assembler    Page 2 


   55 00000064 0A000004        BEQ              endReadAgain ; {
   56 00000068 EBFFFFFE        BL               sendchar    ;   echo key back t
                                                            o console
   57 0000006C         
   58 0000006C         ;
   59 0000006C         ; do any necessary processing of the key
   60 0000006C         ;
   61 0000006C         
   62 0000006C E0060693        MUL              R6, R3, R6
   63 00000070 E2400030        SUB              R0, R0, #0x30
   64 00000074 E0806006        ADD              R6, R0, R6
   65 00000078         
   66 00000078 EAFFFFF7        B                readAgain
   67 0000007C         
   68 0000007C         endReadAgain
   69 0000007C         
   70 0000007C E3A0003D        LDR              R0, ='='
   71 00000080 EBFFFFFE        BL               sendchar
   72 00000084         
   73 00000084 E3570001        CMP              R7,#1
   74 00000088 0A000003        BEQ              multiplyExp
   75 0000008C E3570002        CMP              R7,#2
   76 00000090 0A000003        BEQ              addExp
   77 00000094 E3570003        CMP              R7,#3
   78 00000098 0A000003        BEQ              subtractExp
   79 0000009C         
   80 0000009C         multiplyExp
   81 0000009C E0050694        MUL              R5, R4, R6
   82 000000A0 EA000003        B                endCalculate
   83 000000A4         
   84 000000A4         addExp
   85 000000A4 E0845006        ADD              R5, R4, R6
   86 000000A8 EA000001        B                endCalculate
   87 000000AC         
   88 000000AC         subtractExp
   89 000000AC E0445006        SUB              R5, R4, R6
   90 000000B0 EAFFFFFF        B                endCalculate
   91 000000B4         
   92 000000B4         endCalculate
   93 000000B4         
   94 000000B4 E3A0A030        LDR              R10, =0X30  ;ASCII offset
   95 000000B8         
   96 000000B8 E3A08001        LDR              R8, =1      ;Power to test
   97 000000BC E3A0C001        LDR              R12, =1     ;Actual power of nu
                                                            mber
   98 000000C0         
   99 000000C0         DIGITS
  100 000000C0 E1550008        CMP              R5, R8
  101 000000C4 DA000002        BLE              ENDDIGITS
  102 000000C8 E0080893        MUL              R8, R3, R8
  103 000000CC E28CC001        ADD              R12, R12, #1
  104 000000D0 EAFFFFFA        B                DIGITS
  105 000000D4         ENDDIGITS
  106 000000D4         
  107 000000D4         PRINT
  108 000000D4 E3A08001        MOV              R8, #1      ;Power to test
  109 000000D8 E3A09001        MOV              R9, #1      ;Actual number to d
                                                            ivide
  110 000000DC         



ARM Macro Assembler    Page 3 


  111 000000DC         POWER
  112 000000DC E1550008        CMP              R5, R8
  113 000000E0 DA000002        BLE              ENDPOWER
  114 000000E4 E1A09008        MOV              R9, R8
  115 000000E8 E0080893        MUL              R8, R3, R8
  116 000000EC EAFFFFFA        B                POWER
  117 000000F0         ENDPOWER
  118 000000F0         
  119 000000F0 E3A0B000        LDR              R11, =0     ; Quotient 
  120 000000F4         
  121 000000F4         DIVIDE
  122 000000F4 E1550009        CMP              R5, R9      ; while(remainder >
                                                            = power)
  123 000000F8 3A000002        BLO              ENDDIVIDE
  124 000000FC E0455009        SUB              R5, R5, R9
  125 00000100 E28BB001        ADD              R11, R11, #1
  126 00000104 EAFFFFFA        B                DIVIDE
  127 00000108         ENDDIVIDE
  128 00000108         
  129 00000108 E24CC001        SUB              R12, R12, #1
  130 0000010C E35C0000        CMP              R12, #0
  131 00000110 0A000002        BEQ              ENDPRINT
  132 00000114 E08A000B        ADD              R0, R10, R11
  133 00000118 EBFFFFFE        BL               sendchar
  134 0000011C EAFFFFEC        B                PRINT
  135 00000120         
  136 00000120         ENDPRINT
  137 00000120         
  138 00000120 EAFFFFFE 
                       stop    B                stop
  139 00000124         
  140 00000124                 END
Command Line: --debug --xref --diag_suppress=9931 --apcs=interwork --depend=.\d
isplayresult.d -o.\displayresult.o -IC:\Keil_v5\ARM\RV31\INC -IC:\Keil_v5\ARM\C
MSIS\Include -IC:\Keil_v5\ARM\INC\Philips --predefine="__EVAL SETA 1" --predefi
ne="__MICROLIB SETA 1" --predefine="__UVISION_VERSION SETA 524" --predefine="NO
_CLOCK_SETUP SETA 1" --predefine="NO_EMC_SETUP SETA 1" --predefine="RAM_INTVEC 
SETA 1" --predefine="RAM_MODE SETA 1" --predefine="REMAP SETA 1" --list=.\displ
ayresult.lst DisplayResult.s



ARM Macro Assembler    Page 1 Alphabetic symbol ordering
Relocatable symbols

DIGITS 000000C0

Symbol: DIGITS
   Definitions
      At line 99 in file DisplayResult.s
   Uses
      At line 104 in file DisplayResult.s
Comment: DIGITS used once
DIVIDE 000000F4

Symbol: DIVIDE
   Definitions
      At line 121 in file DisplayResult.s
   Uses
      At line 126 in file DisplayResult.s
Comment: DIVIDE used once
DisplayResult 00000000

Symbol: DisplayResult
   Definitions
      At line 1 in file DisplayResult.s
   Uses
      None
Comment: DisplayResult unused
ENDDIGITS 000000D4

Symbol: ENDDIGITS
   Definitions
      At line 105 in file DisplayResult.s
   Uses
      At line 101 in file DisplayResult.s
Comment: ENDDIGITS used once
ENDDIVIDE 00000108

Symbol: ENDDIVIDE
   Definitions
      At line 127 in file DisplayResult.s
   Uses
      At line 123 in file DisplayResult.s
Comment: ENDDIVIDE used once
ENDPOWER 000000F0

Symbol: ENDPOWER
   Definitions
      At line 117 in file DisplayResult.s
   Uses
      At line 113 in file DisplayResult.s
Comment: ENDPOWER used once
ENDPRINT 00000120

Symbol: ENDPRINT
   Definitions
      At line 136 in file DisplayResult.s
   Uses
      At line 131 in file DisplayResult.s
Comment: ENDPRINT used once
POWER 000000DC

Symbol: POWER



ARM Macro Assembler    Page 2 Alphabetic symbol ordering
Relocatable symbols

   Definitions
      At line 111 in file DisplayResult.s
   Uses
      At line 116 in file DisplayResult.s
Comment: POWER used once
PRINT 000000D4

Symbol: PRINT
   Definitions
      At line 107 in file DisplayResult.s
   Uses
      At line 134 in file DisplayResult.s
Comment: PRINT used once
addExp 000000A4

Symbol: addExp
   Definitions
      At line 84 in file DisplayResult.s
   Uses
      At line 76 in file DisplayResult.s
Comment: addExp used once
addOperator 0000004C

Symbol: addOperator
   Definitions
      At line 41 in file DisplayResult.s
   Uses
      At line 27 in file DisplayResult.s
Comment: addOperator used once
endCalculate 000000B4

Symbol: endCalculate
   Definitions
      At line 92 in file DisplayResult.s
   Uses
      At line 82 in file DisplayResult.s
      At line 86 in file DisplayResult.s
      At line 90 in file DisplayResult.s

endRead 0000005C

Symbol: endRead
   Definitions
      At line 49 in file DisplayResult.s
   Uses
      At line 39 in file DisplayResult.s
      At line 43 in file DisplayResult.s
      At line 47 in file DisplayResult.s

endReadAgain 0000007C

Symbol: endReadAgain
   Definitions
      At line 68 in file DisplayResult.s
   Uses
      At line 17 in file DisplayResult.s
      At line 55 in file DisplayResult.s

multiplyExp 0000009C



ARM Macro Assembler    Page 3 Alphabetic symbol ordering
Relocatable symbols


Symbol: multiplyExp
   Definitions
      At line 80 in file DisplayResult.s
   Uses
      At line 74 in file DisplayResult.s
Comment: multiplyExp used once
multiplyOperator 00000044

Symbol: multiplyOperator
   Definitions
      At line 37 in file DisplayResult.s
   Uses
      At line 25 in file DisplayResult.s
Comment: multiplyOperator used once
read 0000000C

Symbol: read
   Definitions
      At line 14 in file DisplayResult.s
   Uses
      At line 35 in file DisplayResult.s
Comment: read used once
readAgain 0000005C

Symbol: readAgain
   Definitions
      At line 51 in file DisplayResult.s
   Uses
      At line 66 in file DisplayResult.s
Comment: readAgain used once
start 00000000

Symbol: start
   Definitions
      At line 8 in file DisplayResult.s
   Uses
      At line 5 in file DisplayResult.s
Comment: start used once
stop 00000120

Symbol: stop
   Definitions
      At line 138 in file DisplayResult.s
   Uses
      At line 138 in file DisplayResult.s
Comment: stop used once
subtractExp 000000AC

Symbol: subtractExp
   Definitions
      At line 88 in file DisplayResult.s
   Uses
      At line 78 in file DisplayResult.s
Comment: subtractExp used once
subtractOperator 00000054

Symbol: subtractOperator
   Definitions



ARM Macro Assembler    Page 4 Alphabetic symbol ordering
Relocatable symbols

      At line 45 in file DisplayResult.s
   Uses
      At line 29 in file DisplayResult.s
Comment: subtractOperator used once
22 symbols



ARM Macro Assembler    Page 1 Alphabetic symbol ordering
External symbols

getkey 00000000

Symbol: getkey
   Definitions
      At line 3 in file DisplayResult.s
   Uses
      At line 15 in file DisplayResult.s
      At line 53 in file DisplayResult.s

main 00000000

Symbol: main
   Definitions
      At line 2 in file DisplayResult.s
   Uses
      None
Comment: main unused
sendchar 00000000

Symbol: sendchar
   Definitions
      At line 4 in file DisplayResult.s
   Uses
      At line 18 in file DisplayResult.s
      At line 56 in file DisplayResult.s
      At line 71 in file DisplayResult.s
      At line 133 in file DisplayResult.s

3 symbols
363 symbols in table
